; Function Attrs: nounwind uwtable
define noalias nonnull ptr @l_Lean_Compiler_LCNF_Testing_getTestName(ptr noundef readonly captures(none) %0, ptr noundef readnone captures(none) %1, ptr noundef readnone captures(none) %2, ptr noundef readnone captures(none) %3, ptr noundef readnone captures(none) %4, ptr noundef %5) local_unnamed_addr #0 {
  %7 = getelementptr inbounds nuw i8, ptr %0, i64 16
  %8 = load ptr, ptr %7, align 8, !tbaa !7
  %9 = ptrtoint ptr %8 to i64
  %10 = and i64 %9, 1
  %.not = icmp eq i64 %10, 0
  br i1 %.not, label %11, label %lean_inc.exit

11:                                               ; preds = %6
  %.val.i = load i32, ptr %8, align 4, !tbaa !9
  %12 = icmp sgt i32 %.val.i, 0
  br i1 %12, label %13, label %15, !prof !12

13:                                               ; preds = %11
  %14 = add nuw i32 %.val.i, 1
  store i32 %14, ptr %8, align 4, !tbaa !9
  br label %lean_inc.exit

15:                                               ; preds = %11
  %.not.i = icmp eq i32 %.val.i, 0
  br i1 %.not.i, label %lean_inc.exit, label %16

16:                                               ; preds = %15
  tail call void @lean_inc_ref_cold(ptr noundef nonnull %8) #5
  br label %lean_inc.exit

lean_inc.exit:                                    ; preds = %16, %15, %13, %6
  tail call void @lean_inc_heartbeat() #5
  %17 = tail call noalias ptr @mi_malloc_small(i64 noundef 24) #5
  %18 = icmp eq ptr %17, null
  br i1 %18, label %19, label %lean_alloc_ctor.exit

19:                                               ; preds = %lean_inc.exit
  tail call void @lean_internal_panic_out_of_memory() #6
  unreachable

lean_alloc_ctor.exit:                             ; preds = %lean_inc.exit
  %20 = getelementptr inbounds nuw i8, ptr %17, i64 4
  store i32 1, ptr %17, align 4, !tbaa !9
  store i32 131096, ptr %20, align 4
  %21 = getelementptr inbounds nuw i8, ptr %17, i64 8
  store ptr %8, ptr %21, align 8, !tbaa !7
  %22 = getelementptr inbounds nuw i8, ptr %17, i64 16
  store ptr %5, ptr %22, align 8, !tbaa !7
  ret ptr %17
}